; Function Attrs: mustprogress nofree norecurse nosync nounwind memory(read, inaccessiblemem: write) uwtable
define hidden noundef zeroext i1 @_ZNK12quasi_macros9is_uniqueEP9func_decl(ptr noundef nonnull readonly align 8 captures(none) dereferenceable(560) %0, ptr noundef readonly captures(address) %1) local_unnamed_addr #9 align 2 {
  %3 = getelementptr inbounds nuw i8, ptr %0, i64 32
  %4 = getelementptr inbounds nuw i8, ptr %1, i64 12
  %5 = load i32, ptr %4, align 4, !tbaa !75
  %6 = getelementptr inbounds nuw i8, ptr %0, i64 40
  %7 = load i32, ptr %6, align 8, !tbaa !23
  %8 = add i32 %7, -1
  %9 = and i32 %8, %5
  %10 = load ptr, ptr %3, align 8, !tbaa !20
  %11 = zext i32 %9 to i64
  %12 = getelementptr inbounds nuw %"class.obj_map<func_decl, unsigned int>::obj_map_entry", ptr %10, i64 %11
  %13 = zext i32 %7 to i64
  %14 = getelementptr inbounds nuw %"class.obj_map<func_decl, unsigned int>::obj_map_entry", ptr %10, i64 %13
  %.not35.i.i.i = icmp eq i32 %9, %7
  br i1 %.not35.i.i.i, label %.preheader.i.i.i, label %.lr.ph.i.i.i

.preheader.i.i.i:                                 ; preds = %21, %2
  %.not2737.i.i.i = icmp ne i32 %9, 0
  br label %.lr.ph39.i.i.i

.lr.ph.i.i.i:                                     ; preds = %2, %21
  %.036.i.i.i = phi ptr [ %22, %21 ], [ %12, %2 ]
  %15 = load ptr, ptr %.036.i.i.i, align 8, !tbaa !76
  %cond.i = icmp eq ptr %15, inttoptr (i64 1 to ptr)
  br i1 %cond.i, label %21, label %16

16:                                               ; preds = %.lr.ph.i.i.i
  %17 = getelementptr inbounds nuw i8, ptr %15, i64 12
  %18 = load i32, ptr %17, align 4, !tbaa !75
  %19 = icmp eq i32 %18, %5
  %20 = icmp eq ptr %15, %1
  %or.cond.i.i.i = and i1 %20, %19
  br i1 %or.cond.i.i.i, label %_ZNK7obj_mapI9func_decljE4findEPS0_.exit, label %21

21:                                               ; preds = %16, %.lr.ph.i.i.i
  %22 = getelementptr inbounds nuw i8, ptr %.036.i.i.i, i64 16
  %.not.i.i.i = icmp eq ptr %22, %14
  br i1 %.not.i.i.i, label %.preheader.i.i.i, label %.lr.ph.i.i.i, !llvm.loop !78

.lr.ph39.i.i.i:                                   ; preds = %29, %.preheader.i.i.i
  %.not27.i.i.sink.i = phi i1 [ %.not27.i.i.i, %29 ], [ %.not2737.i.i.i, %.preheader.i.i.i ]
  %.138.i.i.i = phi ptr [ %30, %29 ], [ %10, %.preheader.i.i.i ]
  tail call void @llvm.assume(i1 %.not27.i.i.sink.i)
  %23 = load ptr, ptr %.138.i.i.i, align 8, !tbaa !76
  %cond4.i = icmp eq ptr %23, inttoptr (i64 1 to ptr)
  br i1 %cond4.i, label %29, label %24

24:                                               ; preds = %.lr.ph39.i.i.i
  %25 = getelementptr inbounds nuw i8, ptr %23, i64 12
  %26 = load i32, ptr %25, align 4, !tbaa !75
  %27 = icmp eq i32 %26, %5
  %28 = icmp eq ptr %23, %1
  %or.cond31.i.i.i = and i1 %28, %27
  br i1 %or.cond31.i.i.i, label %_ZNK7obj_mapI9func_decljE4findEPS0_.exit, label %29

29:                                               ; preds = %24, %.lr.ph39.i.i.i
  %30 = getelementptr inbounds nuw i8, ptr %.138.i.i.i, i64 16
  %.not27.i.i.i = icmp ne ptr %30, %12
  br label %.lr.ph39.i.i.i

_ZNK7obj_mapI9func_decljE4findEPS0_.exit:         ; preds = %16, %24
  %.026.i.i.i = phi ptr [ %.138.i.i.i, %24 ], [ %.036.i.i.i, %16 ]
  %31 = getelementptr inbounds nuw i8, ptr %.026.i.i.i, i64 8
  %32 = load i32, ptr %31, align 4, !tbaa !36
  %33 = icmp eq i32 %32, 1
  ret i1 %33
}